; Function Attrs: null_pointer_is_valid sspstrong uwtable
define internal fastcc range(i32 3, 0) i32 @dissect_rdm_pd_slot_value(ptr noundef %0, ptr noundef %1, i8 noundef zeroext %2, i8 noundef zeroext %3) unnamed_addr #1 {
  %cond = icmp eq i8 %2, 33
  %5 = icmp ugt i8 %3, 2
  %or.cond = and i1 %cond, %5
  br i1 %or.cond, label %.preheader, label %.loopexit

.preheader:                                       ; preds = %4, %.preheader
  %.1 = phi i32 [ %11, %.preheader ], [ 23, %4 ]
  %.0 = phi i8 [ %12, %.preheader ], [ %3, %4 ]
  %6 = load i32, ptr @hf_rdm_pd_slot_offset, align 4
  %7 = tail call ptr @proto_tree_add_item(ptr noundef %1, i32 noundef %6, ptr noundef %0, i32 noundef %.1, i32 noundef 2, i32 noundef 0)
  %8 = add nuw nsw i32 %.1, 2
  %9 = load i32, ptr @hf_rdm_pd_slot_value, align 4
  %10 = tail call ptr @proto_tree_add_item(ptr noundef %1, i32 noundef %9, ptr noundef %0, i32 noundef %8, i32 noundef 1, i32 noundef 0)
  %11 = add nuw nsw i32 %.1, 3
  %12 = add i8 %.0, -3
  %.old2 = icmp ugt i8 %12, 2
  br i1 %.old2, label %.preheader, label %.loopexit

.loopexit:                                        ; preds = %.preheader, %4
  %.013 = phi i32 [ 23, %4 ], [ %11, %.preheader ]
  ret i32 %.013
}